target datalayout = "e-m:e-p270:32:32-p271:32:32-p272:64:64-i64:64-i128:128-f80:128-n8:16:32:64-S128"
target triple = "x86_64-pc-linux-gnu"

%"class.clang::driver::Action" = type { ptr, i32, i32, %"class.llvm::SmallVector", i8, i32, i32, ptr, ptr }
%"class.llvm::SmallVector" = type { %"class.llvm::SmallVectorImpl", %"struct.llvm::SmallVectorStorage" }
%"class.llvm::SmallVectorImpl" = type { %"class.llvm::SmallVectorTemplateBase" }
%"class.llvm::SmallVectorTemplateBase" = type { %"class.llvm::SmallVectorTemplateCommon" }
%"class.llvm::SmallVectorTemplateCommon" = type { %"class.llvm::SmallVectorBase" }
%"class.llvm::SmallVectorBase" = type { ptr, i32, i32 }
%"struct.llvm::SmallVectorStorage" = type { [24 x i8] }
%"class.clang::driver::OffloadAction" = type { %"class.clang::driver::Action", ptr, %"class.llvm::SmallVector.7" }
%"class.llvm::SmallVector.7" = type { %"class.llvm::SmallVectorImpl.8", %"struct.llvm::SmallVectorStorage.11" }
%"class.llvm::SmallVectorImpl.8" = type { %"class.llvm::SmallVectorTemplateBase.9" }
%"class.llvm::SmallVectorTemplateBase.9" = type { %"class.llvm::SmallVectorTemplateCommon.10" }
%"class.llvm::SmallVectorTemplateCommon.10" = type { %"class.llvm::SmallVectorBase" }
%"struct.llvm::SmallVectorStorage.11" = type { [24 x i8] }
%"class.clang::driver::OffloadAction::HostDependence" = type <{ ptr, ptr, ptr, i32, [4 x i8] }>

@_ZTVN5clang6driver13OffloadActionE = unnamed_addr constant { [5 x ptr] } { [5 x ptr] [ptr null, ptr null, ptr @_ZN5clang6driver13OffloadActionD2Ev, ptr @_ZN5clang6driver13OffloadActionD0Ev, ptr @_ZN5clang6driver13OffloadAction6anchorEv] }, align 8

; Function Attrs: mustprogress nounwind uwtable
define linkonce_odr hidden noundef ptr @_ZNK4llvm25SmallVectorTemplateCommonIPKN5clang6driver9ToolChainEvE10getFirstElEv(ptr noundef nonnull align 8 dereferenceable(16) %0) #0 comdat align 2 {
  %2 = alloca ptr, align 8
  store ptr %0, ptr %2, align 8
  %3 = load ptr, ptr %2, align 8
  %4 = getelementptr inbounds i8, ptr %3, i64 16
  ret ptr %4
}

; Function Attrs: mustprogress nounwind uwtable
define linkonce_odr hidden void @_ZN4llvm25SmallVectorTemplateCommonIPKN5clang6driver9ToolChainEvEC2Em(ptr noundef nonnull align 8 dereferenceable(16) %0, i64 noundef %1) unnamed_addr #0 comdat align 2 {
  %3 = alloca ptr, align 8
  %4 = alloca i64, align 8
  store ptr %0, ptr %3, align 8
  store i64 %1, ptr %4, align 8
  %5 = load ptr, ptr %3, align 8
  %6 = call noundef ptr @_ZNK4llvm25SmallVectorTemplateCommonIPKN5clang6driver9ToolChainEvE10getFirstElEv(ptr noundef nonnull align 8 dereferenceable(16) %5)
  %7 = load i64, ptr %4, align 8
  call void @_ZN4llvm15SmallVectorBaseIjEC2EPvm(ptr noundef nonnull align 8 dereferenceable(16) %5, ptr noundef %6, i64 noundef %7)
  ret void
}

; Function Attrs: mustprogress nounwind uwtable
define linkonce_odr hidden void @_ZN4llvm23SmallVectorTemplateBaseIPKN5clang6driver9ToolChainELb1EEC2Em(ptr noundef nonnull align 8 dereferenceable(16) %0, i64 noundef %1) unnamed_addr #0 comdat align 2 {
  %3 = alloca ptr, align 8
  %4 = alloca i64, align 8
  store ptr %0, ptr %3, align 8
  store i64 %1, ptr %4, align 8
  %5 = load ptr, ptr %3, align 8
  %6 = load i64, ptr %4, align 8
  call void @_ZN4llvm25SmallVectorTemplateCommonIPKN5clang6driver9ToolChainEvEC2Em(ptr noundef nonnull align 8 dereferenceable(16) %5, i64 noundef %6)
  ret void
}

; Function Attrs: mustprogress nounwind uwtable
define linkonce_odr hidden void @_ZN4llvm15SmallVectorImplIPKN5clang6driver9ToolChainEEC2Ej(ptr noundef nonnull align 8 dereferenceable(16) %0, i32 noundef %1) unnamed_addr #0 comdat align 2 {
  %3 = alloca ptr, align 8
  %4 = alloca i32, align 4
  store ptr %0, ptr %3, align 8
  store i32 %1, ptr %4, align 4
  %5 = load ptr, ptr %3, align 8
  %6 = load i32, ptr %4, align 4
  %7 = zext i32 %6 to i64
  call void @_ZN4llvm23SmallVectorTemplateBaseIPKN5clang6driver9ToolChainELb1EEC2Em(ptr noundef nonnull align 8 dereferenceable(16) %5, i64 noundef %7)
  ret void
}

; Function Attrs: mustprogress nounwind uwtable
define linkonce_odr hidden noundef i32 @_ZNK5clang6driver13OffloadAction14HostDependence15getOffloadKindsEv(ptr noundef nonnull align 8 dereferenceable(32) %0) #0 comdat align 2 {
  %2 = alloca ptr, align 8
  store ptr %0, ptr %2, align 8
  %3 = load ptr, ptr %2, align 8
  %4 = getelementptr inbounds nuw %"class.clang::driver::OffloadAction::HostDependence", ptr %3, i32 0, i32 3
  %5 = load i32, ptr %4, align 8
  ret i32 %5
}

; Function Attrs: mustprogress nounwind uwtable
define linkonce_odr hidden noundef ptr @_ZNK5clang6driver13OffloadAction14HostDependence12getBoundArchEv(ptr noundef nonnull align 8 dereferenceable(32) %0) #0 comdat align 2 {
  %2 = alloca ptr, align 8
  store ptr %0, ptr %2, align 8
  %3 = load ptr, ptr %2, align 8
  %4 = getelementptr inbounds nuw %"class.clang::driver::OffloadAction::HostDependence", ptr %3, i32 0, i32 2
  %5 = load ptr, ptr %4, align 8
  ret ptr %5
}

; Function Attrs: mustprogress nounwind uwtable
define linkonce_odr hidden void @_ZN4llvm11SmallVectorIPKN5clang6driver9ToolChainELj3EEC2Ev(ptr noundef nonnull align 8 dereferenceable(40) %0) unnamed_addr #0 comdat align 2 {
  %2 = alloca ptr, align 8
  store ptr %0, ptr %2, align 8
  %3 = load ptr, ptr %2, align 8
  call void @_ZN4llvm15SmallVectorImplIPKN5clang6driver9ToolChainEEC2Ej(ptr noundef nonnull align 8 dereferenceable(16) %3, i32 noundef 3)
  ret void
}

; Function Attrs: mustprogress nounwind uwtable
define linkonce_odr hidden noundef ptr @_ZNK5clang6driver13OffloadAction14HostDependence12getToolChainEv(ptr noundef nonnull align 8 dereferenceable(32) %0) #0 comdat align 2 {
  %2 = alloca ptr, align 8
  store ptr %0, ptr %2, align 8
  %3 = load ptr, ptr %2, align 8
  %4 = getelementptr inbounds nuw %"class.clang::driver::OffloadAction::HostDependence", ptr %3, i32 0, i32 1
  %5 = load ptr, ptr %4, align 8
  ret ptr %5
}

; Function Attrs: mustprogress nounwind uwtable
define linkonce_odr hidden noundef ptr @_ZNK5clang6driver13OffloadAction14HostDependence9getActionEv(ptr noundef nonnull align 8 dereferenceable(32) %0) #0 comdat align 2 {
  %2 = alloca ptr, align 8
  store ptr %0, ptr %2, align 8
  %3 = load ptr, ptr %2, align 8
  %4 = getelementptr inbounds nuw %"class.clang::driver::OffloadAction::HostDependence", ptr %3, i32 0, i32 0
  %5 = load ptr, ptr %4, align 8
  ret ptr %5
}

; Function Attrs: mustprogress nounwind uwtable
define dso_local void @_ZN5clang6driver13OffloadActionC2ERKNS1_14HostDependenceE(ptr noundef nonnull align 8 dereferenceable(136) %0, ptr noundef nonnull align 8 dereferenceable(32) %1) unnamed_addr #0 align 2 {
  %3 = alloca ptr, align 8
  %4 = alloca ptr, align 8
  store ptr %0, ptr %3, align 8
  store ptr %1, ptr %4, align 8
  %5 = load ptr, ptr %3, align 8
  %6 = load ptr, ptr %4, align 8
  %7 = call noundef ptr @_ZNK5clang6driver13OffloadAction14HostDependence9getActionEv(ptr noundef nonnull align 8 dereferenceable(32) %6)
  call void @_ZN5clang6driver6ActionC2ENS1_11ActionClassEPS1_(ptr noundef nonnull align 8 dereferenceable(88) %5, i32 noundef 2, ptr noundef %7)
  store ptr getelementptr inbounds inrange(-16, 24) ({ [5 x ptr] }, ptr @_ZTVN5clang6driver13OffloadActionE, i32 0, i32 0, i32 2), ptr %5, align 8
  %8 = getelementptr inbounds nuw %"class.clang::driver::OffloadAction", ptr %5, i32 0, i32 1
  %9 = load ptr, ptr %4, align 8
  %10 = call noundef ptr @_ZNK5clang6driver13OffloadAction14HostDependence12getToolChainEv(ptr noundef nonnull align 8 dereferenceable(32) %9)
  store ptr %10, ptr %8, align 8
  %11 = getelementptr inbounds nuw %"class.clang::driver::OffloadAction", ptr %5, i32 0, i32 2
  call void @_ZN4llvm11SmallVectorIPKN5clang6driver9ToolChainELj3EEC2Ev(ptr noundef nonnull align 8 dereferenceable(40) %11)
  %12 = load ptr, ptr %4, align 8
  %13 = call noundef ptr @_ZNK5clang6driver13OffloadAction14HostDependence12getBoundArchEv(ptr noundef nonnull align 8 dereferenceable(32) %12)
  %14 = getelementptr inbounds nuw %"class.clang::driver::Action", ptr %5, i32 0, i32 7
  store ptr %13, ptr %14, align 8
  %15 = load ptr, ptr %4, align 8
  %16 = call noundef i32 @_ZNK5clang6driver13OffloadAction14HostDependence15getOffloadKindsEv(ptr noundef nonnull align 8 dereferenceable(32) %15)
  %17 = getelementptr inbounds nuw %"class.clang::driver::Action", ptr %5, i32 0, i32 5
  store i32 %16, ptr %17, align 4
  %18 = load ptr, ptr %4, align 8
  %19 = call noundef ptr @_ZNK5clang6driver13OffloadAction14HostDependence9getActionEv(ptr noundef nonnull align 8 dereferenceable(32) %18)
  %20 = load ptr, ptr %4, align 8
  %21 = call noundef i32 @_ZNK5clang6driver13OffloadAction14HostDependence15getOffloadKindsEv(ptr noundef nonnull align 8 dereferenceable(32) %20)
  %22 = load ptr, ptr %4, align 8
  %23 = call noundef ptr @_ZNK5clang6driver13OffloadAction14HostDependence12getBoundArchEv(ptr noundef nonnull align 8 dereferenceable(32) %22)
  call void @_ZN5clang6driver6Action24propagateHostOffloadInfoEjPKc(ptr noundef nonnull align 8 dereferenceable(88) %19, i32 noundef %21, ptr noundef %23)
  ret void
}