; Function Attrs: mustprogress nounwind uwtable
define dso_local void @_ZN5clang6driver13OffloadActionC2ERKNS1_14HostDependenceE(ptr noundef nonnull align 8 dereferenceable(136) %0, ptr nocapture noundef nonnull readonly align 8 dereferenceable(32) %1) unnamed_addr #0 align 2 {
  %3 = load ptr, ptr %1, align 8
  tail call void @_ZN5clang6driver6ActionC2ENS1_11ActionClassEPS1_(ptr noundef nonnull align 8 dereferenceable(88) %0, i32 noundef 2, ptr noundef %3)
  store ptr getelementptr inbounds inrange(-16, 24) (i8, ptr @_ZTVN5clang6driver13OffloadActionE, i64 16), ptr %0, align 8
  %4 = getelementptr inbounds nuw i8, ptr %0, i64 88
  %5 = getelementptr inbounds nuw i8, ptr %1, i64 8
  %6 = load ptr, ptr %5, align 8
  store ptr %6, ptr %4, align 8
  %7 = getelementptr inbounds nuw i8, ptr %0, i64 96
  %8 = getelementptr inbounds i8, ptr %0, i64 112
  tail call void @_ZN4llvm15SmallVectorBaseIjEC2EPvm(ptr noundef nonnull align 8 dereferenceable(16) %7, ptr noundef nonnull %8, i64 noundef 3) #11
  %9 = getelementptr inbounds nuw i8, ptr %1, i64 16
  %10 = load ptr, ptr %9, align 8
  %11 = getelementptr inbounds nuw i8, ptr %0, i64 72
  store ptr %10, ptr %11, align 8
  %12 = getelementptr inbounds nuw i8, ptr %1, i64 24
  %13 = load i32, ptr %12, align 8
  %14 = getelementptr inbounds nuw i8, ptr %0, i64 60
  store i32 %13, ptr %14, align 4
  %15 = load ptr, ptr %1, align 8
  %16 = load ptr, ptr %9, align 8
  tail call void @_ZN5clang6driver6Action24propagateHostOffloadInfoEjPKc(ptr noundef nonnull align 8 dereferenceable(88) %15, i32 noundef %13, ptr noundef %16)
  ret void
}